(S'image/map1.png'
p0
I1
(lp1
ccopy_reg
_reconstructor
p2
(c__main__
Ground
p3
c__builtin__
object
p4
Ntp5
Rp6
(dp7
S'right'
p8
g2
(c__main__
Cord
p9
g4
Ntp10
Rp11
(dp12
S'y'
p13
I217
sS'x'
p14
I456
sbsS'left'
p15
g2
(g9
g4
Ntp16
Rp17
(dp18
g13
I217
sg14
I176
sbsbag2
(g3
g4
Ntp19
Rp20
(dp21
g8
g2
(g9
g4
Ntp22
Rp23
(dp24
g13
I166
sg14
I548
sbsg15
g2
(g9
g4
Ntp25
Rp26
(dp27
g13
I166
sg14
I435
sbsbag2
(g3
g4
Ntp28
Rp29
(dp30
g8
g2
(g9
g4
Ntp31
Rp32
(dp33
g13
I102
sg14
I638
sbsg15
g2
(g9
g4
Ntp34
Rp35
(dp36
g13
I102
sg14
I556
sbsbag2
(g3
g4
Ntp37
Rp38
(dp39
g8
g2
(g9
g4
Ntp40
Rp41
(dp42
g13
I41
sg14
I2029
sbsg15
g2
(g9
g4
Ntp43
Rp44
(dp45
g13
I41
sg14
I617
sbsbag2
(g3
g4
Ntp46
Rp47
(dp48
g8
g2
(g9
g4
Ntp49
Rp50
(dp51
g13
I100
sg14
I2685
sbsg15
g2
(g9
g4
Ntp52
Rp53
(dp54
g13
I100
sg14
I2028
sbsbag2
(g3
g4
Ntp55
Rp56
(dp57
g8
g2
(g9
g4
Ntp58
Rp59
(dp60
g13
I341
sg14
I2260
sbsg15
g2
(g9
g4
Ntp61
Rp62
(dp63
g13
I341
sg14
I2120
sbsbag2
(g3
g4
Ntp64
Rp65
(dp66
g8
g2
(g9
g4
Ntp67
Rp68
(dp69
g13
I517
sg14
I2076
sbsg15
g2
(g9
g4
Ntp70
Rp71
(dp72
g13
I517
sg14
I1943
sbsbag2
(g3
g4
Ntp73
Rp74
(dp75
g8
g2
(g9
g4
Ntp76
Rp77
(dp78
g13
I580
sg14
I1989
sbsg15
g2
(g9
g4
Ntp79
Rp80
(dp81
g13
I580
sg14
I1850
sbsbag2
(g3
g4
Ntp82
Rp83
(dp84
g8
g2
(g9
g4
Ntp85
Rp86
(dp87
g13
I521
sg14
I1809
sbsg15
g2
(g9
g4
Ntp88
Rp89
(dp90
g13
I521
sg14
I1672
sbsbag2
(g3
g4
Ntp91
Rp92
(dp93
g8
g2
(g9
g4
Ntp94
Rp95
(dp96
g13
I459
sg14
I1628
sbsg15
g2
(g9
g4
Ntp97
Rp98
(dp99
g13
I459
sg14
I1128
sbsbag2
(g3
g4
Ntp100
Rp101
(dp102
g8
g2
(g9
g4
Ntp103
Rp104
(dp105
g13
I939
sg14
I1805
sbsg15
g2
(g9
g4
Ntp106
Rp107
(dp108
g13
I939
sg14
I1132
sbsbag2
(g3
g4
Ntp109
Rp110
(dp111
g8
g2
(g9
g4
Ntp112
Rp113
(dp114
g13
I970
sg14
I1672
sbsg15
g2
(g9
g4
Ntp115
Rp116
(dp117
g13
I970
sg14
I1560
sbsbag2
(g3
g4
Ntp118
Rp119
(dp120
g8
g2
(g9
g4
Ntp121
Rp122
(dp123
g13
I1027
sg14
I1587
sbsg15
g2
(g9
g4
Ntp124
Rp125
(dp126
g13
I1027
sg14
I1363
sbsbag2
(g3
g4
Ntp127
Rp128
(dp129
g8
g2
(g9
g4
Ntp130
Rp131
(dp132
g13
I968
sg14
I1379
sbsg15
g2
(g9
g4
Ntp133
Rp134
(dp135
g13
I968
sg14
I1266
sbsbag2
(g3
g4
Ntp136
Rp137
(dp138
g8
g2
(g9
g4
Ntp139
Rp140
(dp141
g13
I882
sg14
I1089
sbsg15
g2
(g9
g4
Ntp142
Rp143
(dp144
g13
I882
sg14
I947
sbsbag2
(g3
g4
Ntp145
Rp146
(dp147
g8
g2
(g9
g4
Ntp148
Rp149
(dp150
g13
I818
sg14
I1178
sbsg15
g2
(g9
g4
Ntp151
Rp152
(dp153
g13
I818
sg14
I1039
sbsbag2
(g3
g4
Ntp154
Rp155
(dp156
g8
g2
(g9
g4
Ntp157
Rp158
(dp159
g13
I759
sg14
I1090
sbsg15
g2
(g9
g4
Ntp160
Rp161
(dp162
g13
I759
sg14
I953
sbsbag2
(g3
g4
Ntp163
Rp164
(dp165
g8
g2
(g9
g4
Ntp166
Rp167
(dp168
g13
I696
sg14
I910
sbsg15
g2
(g9
g4
Ntp169
Rp170
(dp171
g13
I696
sg14
I773
sbsbag2
(g3
g4
Ntp172
Rp173
(dp174
g8
g2
(g9
g4
Ntp175
Rp176
(dp177
g13
I575
sg14
I906
sbsg15
g2
(g9
g4
Ntp178
Rp179
(dp180
g13
I575
sg14
I771
sbsbag2
(g3
g4
Ntp181
Rp182
(dp183
g8
g2
(g9
g4
Ntp184
Rp185
(dp186
g13
I517
sg14
I1083
sbsg15
g2
(g9
g4
Ntp187
Rp188
(dp189
g13
I517
sg14
I952
sbsbag2
(g3
g4
Ntp190
Rp191
(dp192
g8
g2
(g9
g4
Ntp193
Rp194
(dp195
g13
I459
sg14
I998
sbsg15
g2
(g9
g4
Ntp196
Rp197
(dp198
g13
I459
sg14
I864
sbsbag2
(g3
g4
Ntp199
Rp200
(dp201
g8
g2
(g9
g4
Ntp202
Rp203
(dp204
g13
I400
sg14
I820
sbsg15
g2
(g9
g4
Ntp205
Rp206
(dp207
g13
I400
sg14
I678
sbsbag2
(g3
g4
Ntp208
Rp209
(dp210
g8
g2
(g9
g4
Ntp211
Rp212
(dp213
g13
I338
sg14
I727
sbsg15
g2
(g9
g4
Ntp214
Rp215
(dp216
g13
I338
sg14
I592
sbsbag2
(g3
g4
Ntp217
Rp218
(dp219
g8
g2
(g9
g4
Ntp220
Rp221
(dp222
g13
I276
sg14
I630
sbsg15
g2
(g9
g4
Ntp223
Rp224
(dp225
g13
I276
sg14
I501
sbsbag2
(g3
g4
Ntp226
Rp227
(dp228
g8
g2
(g9
g4
Ntp229
Rp230
(dp231
g13
I638
sg14
I731
sbsg15
g2
(g9
g4
Ntp232
Rp233
(dp234
g13
I638
sg14
I168
sbsba(lp235
tp236
.