(S'image/map1.png'
p0
I1
(lp1
ccopy_reg
_reconstructor
p2
(cmapcreator
Ground
p3
c__builtin__
object
p4
Ntp5
Rp6
(dp7
S'right'
p8
g2
(cmapcreator
Cord
p9
g4
Ntp10
Rp11
(dp12
S'y'
p13
I289
sS'x'
p14
I350
sbsS'left'
p15
g2
(g9
g4
Ntp16
Rp17
(dp18
g13
I289
sg14
I57
sbsbag2
(g3
g4
Ntp19
Rp20
(dp21
g8
g2
(g9
g4
Ntp22
Rp23
(dp24
g13
I231
sg14
I441
sbsg15
g2
(g9
g4
Ntp25
Rp26
(dp27
g13
I231
sg14
I327
sbsbag2
(g3
g4
Ntp28
Rp29
(dp30
g8
g2
(g9
g4
Ntp31
Rp32
(dp33
g13
I170
sg14
I530
sbsg15
g2
(g9
g4
Ntp34
Rp35
(dp36
g13
I170
sg14
I446
sbsbag2
(g3
g4
Ntp37
Rp38
(dp39
g8
g2
(g9
g4
Ntp40
Rp41
(dp42
g13
I110
sg14
I1921
sbsg15
g2
(g9
g4
Ntp43
Rp44
(dp45
g13
I110
sg14
I508
sbsbag2
(g3
g4
Ntp46
Rp47
(dp48
g8
g2
(g9
g4
Ntp49
Rp50
(dp51
g13
I167
sg14
I2579
sbsg15
g2
(g9
g4
Ntp52
Rp53
(dp54
g13
I167
sg14
I1920
sbsbag2
(g3
g4
Ntp55
Rp56
(dp57
g8
g2
(g9
g4
Ntp58
Rp59
(dp60
g13
I407
sg14
I2153
sbsg15
g2
(g9
g4
Ntp61
Rp62
(dp63
g13
I407
sg14
I2008
sbsbag2
(g3
g4
Ntp64
Rp65
(dp66
g8
g2
(g9
g4
Ntp67
Rp68
(dp69
g13
I588
sg14
I1970
sbsg15
g2
(g9
g4
Ntp70
Rp71
(dp72
g13
I588
sg14
I1832
sbsbag2
(g3
g4
Ntp73
Rp74
(dp75
g8
g2
(g9
g4
Ntp76
Rp77
(dp78
g13
I644
sg14
I1878
sbsg15
g2
(g9
g4
Ntp79
Rp80
(dp81
g13
I644
sg14
I1739
sbsbag2
(g3
g4
Ntp82
Rp83
(dp84
g8
g2
(g9
g4
Ntp85
Rp86
(dp87
g13
I588
sg14
I1698
sbsg15
g2
(g9
g4
Ntp88
Rp89
(dp90
g13
I588
sg14
I1561
sbsbag2
(g3
g4
Ntp91
Rp92
(dp93
g8
g2
(g9
g4
Ntp94
Rp95
(dp96
g13
I530
sg14
I1521
sbsg15
g2
(g9
g4
Ntp97
Rp98
(dp99
g13
I530
sg14
I1021
sbsbag2
(g3
g4
Ntp100
Rp101
(dp102
g8
g2
(g9
g4
Ntp103
Rp104
(dp105
g13
I588
sg14
I982
sbsg15
g2
(g9
g4
Ntp106
Rp107
(dp108
g13
I588
sg14
I837
sbsbag2
(g3
g4
Ntp109
Rp110
(dp111
g8
g2
(g9
g4
Ntp112
Rp113
(dp114
g13
I525
sg14
I895
sbsg15
g2
(g9
g4
Ntp115
Rp116
(dp117
g13
I525
sg14
I749
sbsbag2
(g3
g4
Ntp118
Rp119
(dp120
g8
g2
(g9
g4
Ntp121
Rp122
(dp123
g13
I468
sg14
I712
sbsg15
g2
(g9
g4
Ntp124
Rp125
(dp126
g13
I468
sg14
I569
sbsbag2
(g3
g4
Ntp127
Rp128
(dp129
g8
g2
(g9
g4
Ntp130
Rp131
(dp132
g13
I410
sg14
I622
sbsg15
g2
(g9
g4
Ntp133
Rp134
(dp135
g13
I410
sg14
I481
sbsbag2
(g3
g4
Ntp136
Rp137
(dp138
g8
g2
(g9
g4
Ntp139
Rp140
(dp141
g13
I345
sg14
I527
sbsg15
g2
(g9
g4
Ntp142
Rp143
(dp144
g13
I345
sg14
I390
sbsbag2
(g3
g4
Ntp145
Rp146
(dp147
g8
g2
(g9
g4
Ntp148
Rp149
(dp150
g13
I711
sg14
I620
sbsg15
g2
(g9
g4
Ntp151
Rp152
(dp153
g13
I711
sg14
I58
sbsbag2
(g3
g4
Ntp154
Rp155
(dp156
g8
g2
(g9
g4
Ntp157
Rp158
(dp159
g13
I768
sg14
I802
sbsg15
g2
(g9
g4
Ntp160
Rp161
(dp162
g13
I768
sg14
I660
sbsbag2
(g3
g4
Ntp163
Rp164
(dp165
g8
g2
(g9
g4
Ntp166
Rp167
(dp168
g13
I825
sg14
I981
sbsg15
g2
(g9
g4
Ntp169
Rp170
(dp171
g13
I825
sg14
I840
sbsbag2
(g3
g4
Ntp172
Rp173
(dp174
g8
g2
(g9
g4
Ntp175
Rp176
(dp177
g13
I888
sg14
I1070
sbsg15
g2
(g9
g4
Ntp178
Rp179
(dp180
g13
I888
sg14
I930
sbsbag2
(g3
g4
Ntp181
Rp182
(dp183
g8
g2
(g9
g4
Ntp184
Rp185
(dp186
g13
I949
sg14
I981
sbsg15
g2
(g9
g4
Ntp187
Rp188
(dp189
g13
I949
sg14
I838
sbsbag2
(g3
g4
Ntp190
Rp191
(dp192
g8
g2
(g9
g4
Ntp193
Rp194
(dp195
g13
I1009
sg14
I1701
sbsg15
g2
(g9
g4
Ntp196
Rp197
(dp198
g13
I1009
sg14
I1023
sbsbag2
(g3
g4
Ntp199
Rp200
(dp201
g8
g2
(g9
g4
Ntp202
Rp203
(dp204
g13
I1040
sg14
I1274
sbsg15
g2
(g9
g4
Ntp205
Rp206
(dp207
g13
I1040
sg14
I1158
sbsbag2
(g3
g4
Ntp208
Rp209
(dp210
g8
g2
(g9
g4
Ntp211
Rp212
(dp213
g13
I1097
sg14
I1476
sbsg15
g2
(g9
g4
Ntp214
Rp215
(dp216
g13
I1097
sg14
I1246
sbsbag2
(g3
g4
Ntp217
Rp218
(dp219
g8
g2
(g9
g4
Ntp220
Rp221
(dp222
g13
I1037
sg14
I1564
sbsg15
g2
(g9
g4
Ntp223
Rp224
(dp225
g13
I1037
sg14
I1451
sbsbag2
(g3
g4
Ntp226
Rp227
(dp228
g8
g2
(g9
g4
Ntp229
Rp230
(dp231
g13
I645
sg14
I802
sbsg15
g2
(g9
g4
Ntp232
Rp233
(dp234
g13
I645
sg14
I657
sbsba(lp235
g2
(g9
g4
Ntp236
Rp237
(dp238
g13
I-190
sg14
I20
sbtp239
.